target datalayout = "e-m:e-p270:32:32-p271:32:32-p272:64:64-i64:64-i128:128-f80:128-n8:16:32:64-S128"
target triple = "x86_64-pc-linux-gnu"

%struct._generic_SUNAdaptController = type { ptr, ptr, ptr }
%struct._SUNAdaptControllerContent_Soderlind = type { double, double, double, double, double, double, double, double, double, double, i32 }

@.str = private unnamed_addr constant [38 x i8] c"Soderlind SUNAdaptController module:\0A\00", align 1
@.str.1 = private unnamed_addr constant [13 x i8] c"  k1 = %16g\0A\00", align 1
@.str.2 = private unnamed_addr constant [13 x i8] c"  k2 = %16g\0A\00", align 1
@.str.3 = private unnamed_addr constant [13 x i8] c"  k3 = %16g\0A\00", align 1
@.str.4 = private unnamed_addr constant [13 x i8] c"  k4 = %16g\0A\00", align 1
@.str.5 = private unnamed_addr constant [13 x i8] c"  k5 = %16g\0A\00", align 1
@.str.6 = private unnamed_addr constant [22 x i8] c"  bias factor = %16g\0A\00", align 1
@.str.7 = private unnamed_addr constant [25 x i8] c"  previous error = %16g\0A\00", align 1
@.str.8 = private unnamed_addr constant [34 x i8] c"  previous-previous error = %16g\0A\00", align 1
@.str.9 = private unnamed_addr constant [24 x i8] c"  previous step = %16g\0A\00", align 1
@.str.10 = private unnamed_addr constant [33 x i8] c"  previous-previous step = %16g\0A\00", align 1
@.str.11 = private unnamed_addr constant [19 x i8] c"  firststeps = %i\0A\00", align 1

; Function Attrs: nounwind uwtable
define i32 @SUNAdaptController_Write_Soderlind(ptr noundef %0, ptr noundef %1) #0 {
  %3 = alloca ptr, align 8
  %4 = alloca ptr, align 8
  %5 = alloca ptr, align 8
  store ptr %0, ptr %3, align 8, !tbaa !8
  store ptr %1, ptr %4, align 8, !tbaa !44
  call void @llvm.lifetime.start.p0(i64 8, ptr %5) #5
  %6 = load ptr, ptr %3, align 8, !tbaa !8
  %7 = getelementptr inbounds nuw %struct._generic_SUNAdaptController, ptr %6, i32 0, i32 2
  %8 = load ptr, ptr %7, align 8, !tbaa !31
  store ptr %8, ptr %5, align 8, !tbaa !3
  %9 = load ptr, ptr %4, align 8, !tbaa !44
  %10 = call i32 (ptr, ptr, ...) @fprintf(ptr noundef %9, ptr noundef @.str) #5
  %11 = load ptr, ptr %4, align 8, !tbaa !44
  %12 = load ptr, ptr %3, align 8, !tbaa !8
  %13 = getelementptr inbounds nuw %struct._generic_SUNAdaptController, ptr %12, i32 0, i32 0
  %14 = load ptr, ptr %13, align 8, !tbaa !24
  %15 = getelementptr inbounds nuw %struct._SUNAdaptControllerContent_Soderlind, ptr %14, i32 0, i32 0
  %16 = load double, ptr %15, align 8, !tbaa !32
  %17 = call i32 (ptr, ptr, ...) @fprintf(ptr noundef %11, ptr noundef @.str.1, double noundef %16) #5
  %18 = load ptr, ptr %4, align 8, !tbaa !44
  %19 = load ptr, ptr %3, align 8, !tbaa !8
  %20 = getelementptr inbounds nuw %struct._generic_SUNAdaptController, ptr %19, i32 0, i32 0
  %21 = load ptr, ptr %20, align 8, !tbaa !24
  %22 = getelementptr inbounds nuw %struct._SUNAdaptControllerContent_Soderlind, ptr %21, i32 0, i32 1
  %23 = load double, ptr %22, align 8, !tbaa !34
  %24 = call i32 (ptr, ptr, ...) @fprintf(ptr noundef %18, ptr noundef @.str.2, double noundef %23) #5
  %25 = load ptr, ptr %4, align 8, !tbaa !44
  %26 = load ptr, ptr %3, align 8, !tbaa !8
  %27 = getelementptr inbounds nuw %struct._generic_SUNAdaptController, ptr %26, i32 0, i32 0
  %28 = load ptr, ptr %27, align 8, !tbaa !24
  %29 = getelementptr inbounds nuw %struct._SUNAdaptControllerContent_Soderlind, ptr %28, i32 0, i32 2
  %30 = load double, ptr %29, align 8, !tbaa !35
  %31 = call i32 (ptr, ptr, ...) @fprintf(ptr noundef %25, ptr noundef @.str.3, double noundef %30) #5
  %32 = load ptr, ptr %4, align 8, !tbaa !44
  %33 = load ptr, ptr %3, align 8, !tbaa !8
  %34 = getelementptr inbounds nuw %struct._generic_SUNAdaptController, ptr %33, i32 0, i32 0
  %35 = load ptr, ptr %34, align 8, !tbaa !24
  %36 = getelementptr inbounds nuw %struct._SUNAdaptControllerContent_Soderlind, ptr %35, i32 0, i32 3
  %37 = load double, ptr %36, align 8, !tbaa !36
  %38 = call i32 (ptr, ptr, ...) @fprintf(ptr noundef %32, ptr noundef @.str.4, double noundef %37) #5
  %39 = load ptr, ptr %4, align 8, !tbaa !44
  %40 = load ptr, ptr %3, align 8, !tbaa !8
  %41 = getelementptr inbounds nuw %struct._generic_SUNAdaptController, ptr %40, i32 0, i32 0
  %42 = load ptr, ptr %41, align 8, !tbaa !24
  %43 = getelementptr inbounds nuw %struct._SUNAdaptControllerContent_Soderlind, ptr %42, i32 0, i32 4
  %44 = load double, ptr %43, align 8, !tbaa !37
  %45 = call i32 (ptr, ptr, ...) @fprintf(ptr noundef %39, ptr noundef @.str.5, double noundef %44) #5
  %46 = load ptr, ptr %4, align 8, !tbaa !44
  %47 = load ptr, ptr %3, align 8, !tbaa !8
  %48 = getelementptr inbounds nuw %struct._generic_SUNAdaptController, ptr %47, i32 0, i32 0
  %49 = load ptr, ptr %48, align 8, !tbaa !24
  %50 = getelementptr inbounds nuw %struct._SUNAdaptControllerContent_Soderlind, ptr %49, i32 0, i32 5
  %51 = load double, ptr %50, align 8, !tbaa !38
  %52 = call i32 (ptr, ptr, ...) @fprintf(ptr noundef %46, ptr noundef @.str.6, double noundef %51) #5
  %53 = load ptr, ptr %4, align 8, !tbaa !44
  %54 = load ptr, ptr %3, align 8, !tbaa !8
  %55 = getelementptr inbounds nuw %struct._generic_SUNAdaptController, ptr %54, i32 0, i32 0
  %56 = load ptr, ptr %55, align 8, !tbaa !24
  %57 = getelementptr inbounds nuw %struct._SUNAdaptControllerContent_Soderlind, ptr %56, i32 0, i32 6
  %58 = load double, ptr %57, align 8, !tbaa !39
  %59 = call i32 (ptr, ptr, ...) @fprintf(ptr noundef %53, ptr noundef @.str.7, double noundef %58) #5
  %60 = load ptr, ptr %4, align 8, !tbaa !44
  %61 = load ptr, ptr %3, align 8, !tbaa !8
  %62 = getelementptr inbounds nuw %struct._generic_SUNAdaptController, ptr %61, i32 0, i32 0
  %63 = load ptr, ptr %62, align 8, !tbaa !24
  %64 = getelementptr inbounds nuw %struct._SUNAdaptControllerContent_Soderlind, ptr %63, i32 0, i32 7
  %65 = load double, ptr %64, align 8, !tbaa !40
  %66 = call i32 (ptr, ptr, ...) @fprintf(ptr noundef %60, ptr noundef @.str.8, double noundef %65) #5
  %67 = load ptr, ptr %4, align 8, !tbaa !44
  %68 = load ptr, ptr %3, align 8, !tbaa !8
  %69 = getelementptr inbounds nuw %struct._generic_SUNAdaptController, ptr %68, i32 0, i32 0
  %70 = load ptr, ptr %69, align 8, !tbaa !24
  %71 = getelementptr inbounds nuw %struct._SUNAdaptControllerContent_Soderlind, ptr %70, i32 0, i32 8
  %72 = load double, ptr %71, align 8, !tbaa !41
  %73 = call i32 (ptr, ptr, ...) @fprintf(ptr noundef %67, ptr noundef @.str.9, double noundef %72) #5
  %74 = load ptr, ptr %4, align 8, !tbaa !44
  %75 = load ptr, ptr %3, align 8, !tbaa !8
  %76 = getelementptr inbounds nuw %struct._generic_SUNAdaptController, ptr %75, i32 0, i32 0
  %77 = load ptr, ptr %76, align 8, !tbaa !24
  %78 = getelementptr inbounds nuw %struct._SUNAdaptControllerContent_Soderlind, ptr %77, i32 0, i32 9
  %79 = load double, ptr %78, align 8, !tbaa !42
  %80 = call i32 (ptr, ptr, ...) @fprintf(ptr noundef %74, ptr noundef @.str.10, double noundef %79) #5
  %81 = load ptr, ptr %4, align 8, !tbaa !44
  %82 = load ptr, ptr %3, align 8, !tbaa !8
  %83 = getelementptr inbounds nuw %struct._generic_SUNAdaptController, ptr %82, i32 0, i32 0
  %84 = load ptr, ptr %83, align 8, !tbaa !24
  %85 = getelementptr inbounds nuw %struct._SUNAdaptControllerContent_Soderlind, ptr %84, i32 0, i32 10
  %86 = load i32, ptr %85, align 8, !tbaa !43
  %87 = call i32 (ptr, ptr, ...) @fprintf(ptr noundef %81, ptr noundef @.str.11, i32 noundef %86) #5
  call void @llvm.lifetime.end.p0(i64 8, ptr %5) #5
  ret i32 0
}