; Function Attrs: nofree nounwind uwtable
define noundef i32 @SUNAdaptController_Write_Soderlind(ptr noundef readonly captures(none) %0, ptr noundef captures(none) %1) #4 {
  %3 = tail call i64 @fwrite(ptr nonnull @.str, i64 37, i64 1, ptr %1)
  %4 = load ptr, ptr %0, align 8, !tbaa !19
  %5 = load double, ptr %4, align 8, !tbaa !20
  %6 = tail call i32 (ptr, ptr, ...) @fprintf(ptr noundef %1, ptr noundef nonnull @.str.1, double noundef %5) #11
  %7 = load ptr, ptr %0, align 8, !tbaa !19
  %8 = getelementptr inbounds nuw i8, ptr %7, i64 8
  %9 = load double, ptr %8, align 8, !tbaa !24
  %10 = tail call i32 (ptr, ptr, ...) @fprintf(ptr noundef %1, ptr noundef nonnull @.str.2, double noundef %9) #11
  %11 = load ptr, ptr %0, align 8, !tbaa !19
  %12 = getelementptr inbounds nuw i8, ptr %11, i64 16
  %13 = load double, ptr %12, align 8, !tbaa !25
  %14 = tail call i32 (ptr, ptr, ...) @fprintf(ptr noundef %1, ptr noundef nonnull @.str.3, double noundef %13) #11
  %15 = load ptr, ptr %0, align 8, !tbaa !19
  %16 = getelementptr inbounds nuw i8, ptr %15, i64 24
  %17 = load double, ptr %16, align 8, !tbaa !26
  %18 = tail call i32 (ptr, ptr, ...) @fprintf(ptr noundef %1, ptr noundef nonnull @.str.4, double noundef %17) #11
  %19 = load ptr, ptr %0, align 8, !tbaa !19
  %20 = getelementptr inbounds nuw i8, ptr %19, i64 32
  %21 = load double, ptr %20, align 8, !tbaa !27
  %22 = tail call i32 (ptr, ptr, ...) @fprintf(ptr noundef %1, ptr noundef nonnull @.str.5, double noundef %21) #11
  %23 = load ptr, ptr %0, align 8, !tbaa !19
  %24 = getelementptr inbounds nuw i8, ptr %23, i64 40
  %25 = load double, ptr %24, align 8, !tbaa !28
  %26 = tail call i32 (ptr, ptr, ...) @fprintf(ptr noundef %1, ptr noundef nonnull @.str.6, double noundef %25) #11
  %27 = load ptr, ptr %0, align 8, !tbaa !19
  %28 = getelementptr inbounds nuw i8, ptr %27, i64 48
  %29 = load double, ptr %28, align 8, !tbaa !29
  %30 = tail call i32 (ptr, ptr, ...) @fprintf(ptr noundef %1, ptr noundef nonnull @.str.7, double noundef %29) #11
  %31 = load ptr, ptr %0, align 8, !tbaa !19
  %32 = getelementptr inbounds nuw i8, ptr %31, i64 56
  %33 = load double, ptr %32, align 8, !tbaa !30
  %34 = tail call i32 (ptr, ptr, ...) @fprintf(ptr noundef %1, ptr noundef nonnull @.str.8, double noundef %33) #11
  %35 = load ptr, ptr %0, align 8, !tbaa !19
  %36 = getelementptr inbounds nuw i8, ptr %35, i64 64
  %37 = load double, ptr %36, align 8, !tbaa !31
  %38 = tail call i32 (ptr, ptr, ...) @fprintf(ptr noundef %1, ptr noundef nonnull @.str.9, double noundef %37) #11
  %39 = load ptr, ptr %0, align 8, !tbaa !19
  %40 = getelementptr inbounds nuw i8, ptr %39, i64 72
  %41 = load double, ptr %40, align 8, !tbaa !32
  %42 = tail call i32 (ptr, ptr, ...) @fprintf(ptr noundef %1, ptr noundef nonnull @.str.10, double noundef %41) #11
  %43 = load ptr, ptr %0, align 8, !tbaa !19
  %44 = getelementptr inbounds nuw i8, ptr %43, i64 80
  %45 = load i32, ptr %44, align 8, !tbaa !33
  %46 = tail call i32 (ptr, ptr, ...) @fprintf(ptr noundef %1, ptr noundef nonnull @.str.11, i32 noundef %45) #11
  ret i32 0
}